; Function Attrs: mustprogress uwtable
define noundef zeroext i1 @_ZN10GPUProgram16haveShaderOfTypeE11SHADER_TYPE(ptr noundef nonnull readonly align 8 captures(none) dereferenceable(188) %0, i32 noundef %1) local_unnamed_addr #3 align 2 {
  switch i32 %1, label %14 [
    i32 0, label %3
    i32 1, label %6
    i32 2, label %10
  ]

3:                                                ; preds = %2
  %4 = load ptr, ptr %0, align 8
  %5 = icmp ne ptr %4, null
  br label %17

6:                                                ; preds = %2
  %7 = getelementptr inbounds nuw i8, ptr %0, i64 8
  %8 = load ptr, ptr %7, align 8
  %9 = icmp ne ptr %8, null
  br label %17

10:                                               ; preds = %2
  %11 = getelementptr inbounds nuw i8, ptr %0, i64 16
  %12 = load ptr, ptr %11, align 8
  %13 = icmp ne ptr %12, null
  br label %17

14:                                               ; preds = %2
  %15 = tail call noundef nonnull align 8 dereferenceable(8) ptr @_ZStlsISt11char_traitsIcEERSt13basic_ostreamIcT_ES5_PKc(ptr noundef nonnull align 8 dereferenceable(8) @_ZSt4cout, ptr noundef nonnull @.str.2)
  %16 = tail call noundef nonnull align 8 dereferenceable(8) ptr @_ZNSolsEPFRSoS_E(ptr noundef nonnull align 8 dereferenceable(8) %15, ptr noundef nonnull @_ZSt4endlIcSt11char_traitsIcEERSt13basic_ostreamIT_T0_ES6_)
  br label %17

17:                                               ; preds = %14, %10, %6, %3
  %.0 = phi i1 [ %5, %3 ], [ %9, %6 ], [ %13, %10 ], [ false, %14 ]
  ret i1 %.0
}